BL51 BANKED LINKER/LOCATER V6.22                                                        03/13/2017  11:42:24  PAGE 1


BL51 BANKED LINKER/LOCATER V6.22, INVOKED BY:
C:\KEIL\C51\BIN\BL51.EXE .\obj\Compound.obj, .\obj\DEBUG.obj, .\obj\main.obj TO .\obj\Compound_Dev_1_4 PRINT (.\list\Com
>> pound_Dev_1_4.m51) RAMSIZE (256) DISABLEWARNING (16)


MEMORY MODEL: LARGE


INPUT MODULES INCLUDED:
  .\obj\Compound.obj (COMPOUND)
  .\obj\DEBUG.obj (DEBUG)
  .\obj\main.obj (MAIN)
  C:\KEIL\C51\LIB\C51L.LIB (?C_STARTUP)
  C:\KEIL\C51\LIB\C51L.LIB (?C?COPY)
  C:\KEIL\C51\LIB\C51L.LIB (?C?CLDPTR)
  C:\KEIL\C51\LIB\C51L.LIB (?C?IILDX)
  C:\KEIL\C51\LIB\C51L.LIB (?C?ULDIV)
  C:\KEIL\C51\LIB\C51L.LIB (?C?LSTXDATA)
  C:\KEIL\C51\LIB\C51L.LIB (?C?LSTKXDATA)
  C:\KEIL\C51\LIB\C51L.LIB (?C?CCASE)
  C:\KEIL\C51\LIB\C51L.LIB (PRINTF)
  C:\KEIL\C51\LIB\C51L.LIB (RAND)
  C:\KEIL\C51\LIB\C51L.LIB (?C_INIT)
  C:\KEIL\C51\LIB\C51L.LIB (?C?CLDOPTR)
  C:\KEIL\C51\LIB\C51L.LIB (?C?CSTPTR)
  C:\KEIL\C51\LIB\C51L.LIB (?C?LLDXDATA)
  C:\KEIL\C51\LIB\C51L.LIB (?C?PLDIXDATA)
  C:\KEIL\C51\LIB\C51L.LIB (?C?PSTXDATA)
  C:\KEIL\C51\LIB\C51L.LIB (PUTCHAR)


LINK MAP OF MODULE:  .\obj\Compound_Dev_1_4 (COMPOUND)


            TYPE    BASE      LENGTH    RELOCATION   SEGMENT NAME
            -----------------------------------------------------

            * * * * * * *   D A T A   M E M O R Y   * * * * * * *
            REG     0000H     0008H     ABSOLUTE     "REG BANK 0"
            REG     0008H     0008H     ABSOLUTE     "REG BANK 1"
            DATA    0010H     000AH     UNIT         _DATA_GROUP_
                    001AH     0006H                  *** GAP ***
            BIT     0020H.0   0002H.2   UNIT         _BIT_GROUP_
                    0022H.2   0000H.6                *** GAP ***
            IDATA   0023H     0001H     UNIT         ?STACK

            * * * * * * *  X D A T A   M E M O R Y  * * * * * * *
            XDATA   0000H     0008H     ABSOLUTE     
                    0008H     0002H                  *** GAP ***
            XDATA   000AH     0040H     ABSOLUTE     
            XDATA   004AH     0004H     UNIT         ?XD?RAND?RAND
                    004EH     0002H                  *** GAP ***
            XDATA   0050H     0080H     ABSOLUTE     
            XDATA   00D0H     005CH     UNIT         ?XD?COMPOUND
            XDATA   012CH     0051H     UNIT         _XDATA_GROUP_
                    017DH     22C9H                  *** GAP ***
            XDATA   2446H     0001H     ABSOLUTE     
            XDATA   2447H     0001H     ABSOLUTE     
BL51 BANKED LINKER/LOCATER V6.22                                                      03/13/2017  11:42:24  PAGE 2


            XDATA   2448H     0001H     ABSOLUTE     
            XDATA   2449H     0001H     ABSOLUTE     
            XDATA   244AH     0001H     ABSOLUTE     
            XDATA   244BH     0001H     ABSOLUTE     
            XDATA   244CH     0001H     ABSOLUTE     
            XDATA   244DH     0001H     ABSOLUTE     
            XDATA   244EH     0001H     ABSOLUTE     
            XDATA   244FH     0001H     ABSOLUTE     
                    2450H     00F6H                  *** GAP ***
            XDATA   2546H     0001H     ABSOLUTE     
            XDATA   2547H     0001H     ABSOLUTE     
            XDATA   2548H     0001H     ABSOLUTE     
            XDATA   2549H     0001H     ABSOLUTE     
            XDATA   254AH     0001H     ABSOLUTE     
            XDATA   254BH     0001H     ABSOLUTE     
            XDATA   254CH     0001H     ABSOLUTE     
            XDATA   254DH     0001H     ABSOLUTE     
            XDATA   254EH     0001H     ABSOLUTE     
            XDATA   254FH     0001H     ABSOLUTE     
                    2550H     0330H                  *** GAP ***
            XDATA   2880H     0001H     ABSOLUTE     
            XDATA   2881H     0001H     ABSOLUTE     
            XDATA   2882H     0001H     ABSOLUTE     
            XDATA   2883H     0001H     ABSOLUTE     
            XDATA   2884H     0001H     ABSOLUTE     
            XDATA   2885H     0001H     ABSOLUTE     
            XDATA   2886H     0001H     ABSOLUTE     
                    2887H     0001H                  *** GAP ***
            XDATA   2888H     0001H     ABSOLUTE     
            XDATA   2889H     0001H     ABSOLUTE     
                    288AH     00F6H                  *** GAP ***
            XDATA   2980H     0001H     ABSOLUTE     
            XDATA   2981H     0001H     ABSOLUTE     
            XDATA   2982H     0001H     ABSOLUTE     
            XDATA   2983H     0001H     ABSOLUTE     
            XDATA   2984H     0001H     ABSOLUTE     
            XDATA   2985H     0001H     ABSOLUTE     
            XDATA   2986H     0001H     ABSOLUTE     
                    2987H     0001H                  *** GAP ***
            XDATA   2988H     0001H     ABSOLUTE     
            XDATA   2989H     0001H     ABSOLUTE     

            * * * * * * *   C O D E   M E M O R Y   * * * * * * *
            CODE    0000H     0003H     ABSOLUTE     
            CODE    0003H     0027H     UNIT         ?PR?PUTCHAR?PUTCHAR
            CODE    002AH     0017H     UNIT         ?PR?_MDELAYMS?DEBUG
                    0041H     0002H                  *** GAP ***
            CODE    0043H     0003H     ABSOLUTE     
            CODE    0046H     0466H     UNIT         ?PR?DEVICEINTERRUPT?COMPOUND
            CODE    04ACH     0365H     UNIT         ?PR?PRINTF?PRINTF
            CODE    0811H     02C1H     UNIT         ?C?LIB_CODE
            CODE    0AD2H     0133H     UNIT         ?PR?_SENDKEY?COMPOUND
            CODE    0C05H     011BH     UNIT         ?CO?COMPOUND
            CODE    0D20H     009EH     UNIT         ?PR?MINITSTDIO?DEBUG
            CODE    0DBEH     008CH     UNIT         ?C_C51STARTUP
            CODE    0E4AH     0075H     UNIT         ?PR?HIDVALUEHANDLE?COMPOUND
            CODE    0EBFH     005AH     UNIT         ?C_INITSEG
BL51 BANKED LINKER/LOCATER V6.22                                                      03/13/2017  11:42:24  PAGE 3


            CODE    0F19H     004DH     UNIT         ?PR?RAND?RAND
            CODE    0F66H     004BH     UNIT         ?PR?USBDEVICEENDPOINTCFG?COMPOUND
            CODE    0FB1H     0046H     UNIT         ?PR?MAIN?MAIN
            CODE    0FF7H     0026H     UNIT         ?PR?UPLOADDATA?COMPOUND
            CODE    101DH     0023H     UNIT         ?CO?MAIN
            CODE    1040H     0020H     UNIT         ?PR?ENP1INTIN?COMPOUND
            CODE    1060H     0020H     UNIT         ?PR?ENP2INTIN?COMPOUND
            CODE    1080H     001BH     UNIT         ?PR?USBDEVICECFG?COMPOUND
            CODE    109BH     0011H     UNIT         ?PR?USBDEVICEINTCFG?COMPOUND
            CODE    10ACH     000EH     UNIT         ?PR?_MDELAYUS?DEBUG
            CODE    10BAH     000AH     UNIT         ?PR?CFGFSYS?DEBUG
            CODE    10C4H     0008H     UNIT         ?PR?CH559UART0RCVBYTE?DEBUG



OVERLAY MAP OF MODULE:   .\obj\Compound_Dev_1_4 (COMPOUND)


SEGMENT                                      BIT_GROUP          DATA_GROUP          XDATA_GROUP
  +--> CALLED SEGMENT                     START    LENGTH     START    LENGTH     START    LENGTH
-------------------------------------------------------------------------------------------------
?PR?DEVICEINTERRUPT?COMPOUND              -----    -----      -----    -----      012CH    0001H
  +--> ?CO?COMPOUND
  +--> ?PR?PRINTF?PRINTF

?PR?PRINTF?PRINTF                         0021H.1  0001H.1    0015H    0005H      0155H    0028H
  +--> ?PR?PUTCHAR?PUTCHAR

*** NEW ROOT ***************************************************

?C_C51STARTUP                             -----    -----      -----    -----      -----    -----
  +--> ?PR?MAIN?MAIN
  +--> ?C_INITSEG

?PR?MAIN?MAIN                             -----    -----      -----    -----      -----    -----
  +--> ?PR?_MDELAYMS?DEBUG
  +--> ?PR?MINITSTDIO?DEBUG
  +--> ?CO?MAIN
  +--> ?PR?PRINTF?PRINTF
  +--> ?PR?USBDEVICECFG?COMPOUND
  +--> ?PR?USBDEVICEENDPOINTCFG?COMPOUND
  +--> ?PR?USBDEVICEINTCFG?COMPOUND
  +--> ?PR?HIDVALUEHANDLE?COMPOUND

?PR?_MDELAYMS?DEBUG                       -----    -----      -----    -----      -----    -----
  +--> ?PR?_MDELAYUS?DEBUG

?PR?MINITSTDIO?DEBUG                      -----    -----      -----    -----      0155H    0005H

?PR?HIDVALUEHANDLE?COMPOUND               -----    -----      -----    -----      0155H    0001H
  +--> ?PR?UPLOADDATA?COMPOUND
  +--> ?PR?ENP2INTIN?COMPOUND
  +--> ?PR?_SENDKEY?COMPOUND
  +--> ?CO?COMPOUND
  +--> ?PR?_MDELAYMS?DEBUG

?PR?UPLOADDATA?COMPOUND                   -----    -----      -----    -----      0156H    0001H
BL51 BANKED LINKER/LOCATER V6.22                                                      03/13/2017  11:42:24  PAGE 4


  +--> ?PR?RAND?RAND

?PR?_SENDKEY?COMPOUND                     -----    -----      -----    -----      -----    -----
  +--> ?PR?_MDELAYMS?DEBUG
  +--> ?PR?ENP1INTIN?COMPOUND

?C_INITSEG                                -----    -----      -----    -----      -----    -----
  +--> ?CO?COMPOUND



SYMBOL TABLE OF MODULE:  .\obj\Compound_Dev_1_4 (COMPOUND)

  VALUE           TYPE          NAME
  ----------------------------------

  -------         MODULE        COMPOUND
  C:0000H         SYMBOL        _ICE_DUMMY_
  C:109BH         PUBLIC        USBDeviceIntCfg
  X:2989H         PUBLIC        pLED_DMA_XL
  D:0080H         PUBLIC        P0
  X:00D1H         PUBLIC        HIDKey
  D:0090H         PUBLIC        P1
  D:00E2H         PUBLIC        USB_CTRL
  D:00A0H         PUBLIC        P2
  C:0C4FH         PUBLIC        sPath
  D:00B0H         PUBLIC        P3
  X:00D9H         PUBLIC        UsbConfig
  B:00A8H.7       PUBLIC        EA
  X:2888H         PUBLIC        LED_DMA_XH
  B:00D8H.0       PUBLIC        UIF_BUS_RST
  D:00E8H         PUBLIC        IE_EX
  X:2889H         PUBLIC        LED_DMA_XL
  D:00A8H         PUBLIC        IE
  D:00DDH         PUBLIC        UEP0_T_LEN
  D:00E3H         PUBLIC        USB_DEV_AD
  D:00D3H         PUBLIC        UEP1_T_LEN
  D:00D5H         PUBLIC        UEP2_T_LEN
  C:0CDEH         PUBLIC        CfgDesc
  D:00A2H         PUBLIC        XBUS_AUX
  D:00B8H         PUBLIC        IP
  X:00DAH         PUBLIC        FLAG
  C:0C69H         PUBLIC        DevDesc
  D:00D8H         PUBLIC        USB_INT_FG
  C:0E4AH         PUBLIC        HIDValueHandle
  C:0046H         PUBLIC        DeviceInterrupt
  X:00DBH         PUBLIC        pStr
  D:00E1H         PUBLIC        USB_INT_EN
  X:2983H         PUBLIC        pLED_CK_SE
  B:00D8H.1       PUBLIC        UIF_TRANSFER
  D:0087H         PUBLIC        PCON
  X:00DEH         PUBLIC        EnumOK
  D:00DCH         PUBLIC        UEP0_CTRL
  D:00D2H         PUBLIC        UEP1_CTRL
  D:00D4H         PUBLIC        UEP2_CTRL
  D:0098H         PUBLIC        SCON
  X:00DFH         PUBLIC        SetupLen
BL51 BANKED LINKER/LOCATER V6.22                                                      03/13/2017  11:42:24  PAGE 5


  D:0088H         PUBLIC        TCON
  D:00D1H         PUBLIC        USB_RX_LEN
  C:0AD2H         SYMBOL        _SendKey
  C:1040H         SYMBOL        Enp1IntIn
  D:00F8H         PUBLIC        SPI0_STAT
  C:1060H         SYMBOL        Enp2IntIn
  X:2883H         PUBLIC        LED_CK_SE
  D:00DAH         PUBLIC        USB_MIS_ST
  X:00E0H         PUBLIC        SetupReq
  D:00D9H         PUBLIC        USB_INT_ST
  D:00EBH         PUBLIC        WAKE_CTRL
  X:2982H         PUBLIC        pLED_DATA
  X:0000H         PUBLIC        Ep0Buffer
  X:000AH         PUBLIC        Ep1Buffer
  X:0050H         PUBLIC        Ep2Buffer
  C:0CBCH         PUBLIC        ComRepDesc
  D:00E4H         PUBLIC        UDEV_CTRL
  C:1080H         PUBLIC        USBDeviceCfg
  X:2882H         PUBLIC        LED_DATA
  C:0C7BH         PUBLIC        KeyRepDesc
  B:00E8H.2       PUBLIC        IE_USB
  X:00E1H         PUBLIC        SetupReqBuf
  X:2981H         PUBLIC        pLED_CTRL
  D:00C0H         PUBLIC        P4_OUT
  D:00A1H         PUBLIC        SAFE_MOD
  X:2547H         PUBLIC        pUEP2_3_MOD
  X:2546H         PUBLIC        pUEP4_1_MOD
  X:2984H         PUBLIC        pLED_DMA_AH
  X:00E9H         PUBLIC        pDescr
  X:2980H         PUBLIC        pLED_STAT
  C:0FF7H         SYMBOL        UploadData
  X:2985H         PUBLIC        pLED_DMA_AL
  X:2548H         PUBLIC        pUEP0_DMA_H
  D:00C8H         PUBLIC        T2CON
  X:254AH         PUBLIC        pUEP1_DMA_H
  X:254CH         PUBLIC        pUEP2_DMA_H
  X:254EH         PUBLIC        pUEP3_DMA_H
  B:00D8H.2       PUBLIC        UIF_SUSPEND
  X:2986H         PUBLIC        pLED_DMA_CN
  X:2549H         PUBLIC        pUEP0_DMA_L
  X:2881H         PUBLIC        LED_CTRL
  X:254BH         PUBLIC        pUEP1_DMA_L
  X:254DH         PUBLIC        pUEP2_DMA_L
  X:254FH         PUBLIC        pUEP3_DMA_L
  X:2447H         PUBLIC        UEP2_3_MOD
  X:2446H         PUBLIC        UEP4_1_MOD
  X:2884H         PUBLIC        LED_DMA_AH
  X:2880H         PUBLIC        LED_STAT
  X:00ECH         PUBLIC        HIDCom
  X:2885H         PUBLIC        LED_DMA_AL
  X:2448H         PUBLIC        UEP0_DMA_H
  X:244AH         PUBLIC        UEP1_DMA_H
  C:0F66H         PUBLIC        USBDeviceEndPointCfg
  X:244CH         PUBLIC        UEP2_DMA_H
  X:244EH         PUBLIC        UEP3_DMA_H
  X:2988H         PUBLIC        pLED_DMA_XH
  X:2886H         PUBLIC        LED_DMA_CN
BL51 BANKED LINKER/LOCATER V6.22                                                      03/13/2017  11:42:24  PAGE 6


  X:2449H         PUBLIC        UEP0_DMA_L
  D:00D0H         PUBLIC        PSW
  X:244BH         PUBLIC        UEP1_DMA_L
  X:244DH         PUBLIC        UEP2_DMA_L
  X:244FH         PUBLIC        UEP3_DMA_L
  -------         PROC          USBDEVICECFG
  C:1080H         LINE#         151
  C:1080H         LINE#         152
  C:1080H         LINE#         153
  C:1083H         LINE#         154
  C:1086H         LINE#         155
  C:1089H         LINE#         156
  C:108BH         LINE#         157
  C:108EH         LINE#         159
  C:1091H         LINE#         160
  C:1094H         LINE#         161
  C:1097H         LINE#         162
  C:109AH         LINE#         163
  -------         ENDPROC       USBDEVICECFG
  -------         PROC          USBDEVICEINTCFG
  C:109BH         LINE#         171
  C:109BH         LINE#         172
  C:109BH         LINE#         173
  C:109EH         LINE#         174
  C:10A1H         LINE#         175
  C:10A4H         LINE#         176
  C:10A7H         LINE#         177
  C:10A9H         LINE#         178
  C:10ABH         LINE#         179
  -------         ENDPROC       USBDEVICEINTCFG
  -------         PROC          USBDEVICEENDPOINTCFG
  C:0F66H         LINE#         188
  C:0F66H         LINE#         189
  C:0F66H         LINE#         190
  C:0F70H         LINE#         191
  C:0F77H         LINE#         192
  C:0F7BH         LINE#         193
  C:0F7FH         LINE#         194
  C:0F82H         LINE#         196
  C:0F8CH         LINE#         197
  C:0F93H         LINE#         198
  C:0F97H         LINE#         199
  C:0F9BH         LINE#         200
  C:0F9EH         LINE#         202
  C:0FA6H         LINE#         203
  C:0FADH         LINE#         204
  C:0FB0H         LINE#         205
  -------         ENDPROC       USBDEVICEENDPOINTCFG
  -------         PROC          ENP1INTIN
  C:1040H         LINE#         213
  C:1040H         LINE#         214
  C:1040H         LINE#         215
  C:1046H         LINE#         216
  C:1059H         LINE#         217
  C:105CH         LINE#         218
  C:105FH         LINE#         219
  -------         ENDPROC       ENP1INTIN
BL51 BANKED LINKER/LOCATER V6.22                                                      03/13/2017  11:42:24  PAGE 7


  -------         PROC          ENP2INTIN
  C:1060H         LINE#         227
  C:1060H         LINE#         228
  C:1060H         LINE#         229
  C:1066H         LINE#         230
  C:1079H         LINE#         231
  C:107CH         LINE#         232
  C:107FH         LINE#         233
  -------         ENDPROC       ENP2INTIN
  -------         PROC          DEVICEINTERRUPT
  -------         DO            
  X:012CH         SYMBOL        len
  -------         ENDDO         
  C:0046H         LINE#         239
  C:0053H         LINE#         243
  C:0059H         LINE#         244
  C:0059H         LINE#         245
  C:007BH         LINE#         246
  C:007BH         LINE#         247
  C:007BH         LINE#         248
  C:007EH         LINE#         249
  C:0086H         LINE#         250
  C:0089H         LINE#         251
  C:0089H         LINE#         252
  C:0091H         LINE#         253
  C:0094H         LINE#         254
  C:0094H         LINE#         255
  C:0097H         LINE#         256
  C:009FH         LINE#         257
  C:00A5H         LINE#         258
  C:00A8H         LINE#         259
  C:00A8H         LINE#         260
  C:00AEH         LINE#         261
  C:00B6H         LINE#         262
  C:00B6H         LINE#         263
  C:00BEH         LINE#         264
  C:00CDH         LINE#         265
  C:00CDH         LINE#         266
  C:00D3H         LINE#         267
  C:00D3H         LINE#         268
  C:00D8H         LINE#         269
  C:00E1H         LINE#         270
  C:00E1H         LINE#         271
  C:00EAH         LINE#         272
  C:00EAH         LINE#         273
  C:00F0H         LINE#         275
  C:00F9H         LINE#         277
  C:00F9H         LINE#         278
  C:0105H         LINE#         279
  C:0105H         LINE#         280
  C:0108H         LINE#         282
  C:0108H         LINE#         283
  C:010DH         LINE#         284
  C:0110H         LINE#         285
  C:0110H         LINE#         287
  C:0118H         LINE#         288
  C:0149H         LINE#         289
BL51 BANKED LINKER/LOCATER V6.22                                                      03/13/2017  11:42:24  PAGE 8


  C:0149H         LINE#         290
  C:0149H         LINE#         291
  C:0159H         LINE#         292
  C:0159H         LINE#         293
  C:0159H         LINE#         294
  C:0167H         LINE#         295
  C:016DH         LINE#         296
  C:016FH         LINE#         297
  C:016FH         LINE#         298
  C:017DH         LINE#         299
  C:0183H         LINE#         300
  C:0185H         LINE#         301
  C:0185H         LINE#         302
  C:018CH         LINE#         303
  C:018CH         LINE#         304
  C:019AH         LINE#         305
  C:01A0H         LINE#         306
  C:01A2H         LINE#         308
  C:01A6H         LINE#         309
  C:01A6H         LINE#         310
  C:01B4H         LINE#         311
  C:01BAH         LINE#         312
  C:01BCH         LINE#         314
  C:01BCH         LINE#         315
  C:01C2H         LINE#         316
  C:01C2H         LINE#         326
  C:01C4H         LINE#         327
  C:01C4H         LINE#         328
  C:01CAH         LINE#         329
  C:01CAH         LINE#         330
  C:01CAH         LINE#         331
  C:01D5H         LINE#         332
  C:01D5H         LINE#         333
  C:01D5H         LINE#         334
  C:01DDH         LINE#         335
  C:01E5H         LINE#         336
  C:01E5H         LINE#         337
  C:01FCH         LINE#         338
  C:0214H         LINE#         339
  C:0225H         LINE#         340
  C:0230H         LINE#         341
  C:0233H         LINE#         343
  C:0233H         LINE#         344
  C:023BH         LINE#         345
  C:023EH         LINE#         346
  C:023EH         LINE#         348
  C:0246H         LINE#         349
  C:0252H         LINE#         350
  C:0252H         LINE#         351
  C:0258H         LINE#         352
  C:0258H         LINE#         353
  C:025BH         LINE#         354
  C:025BH         LINE#         356
  C:0263H         LINE#         357
  C:0266H         LINE#         358
  C:0266H         LINE#         359
  C:0266H         LINE#         360
BL51 BANKED LINKER/LOCATER V6.22                                                      03/13/2017  11:42:24  PAGE 9


  C:0266H         LINE#         362
  C:0270H         LINE#         363
  C:0270H         LINE#         364
  C:027EH         LINE#         365
  C:027EH         LINE#         366
  C:027EH         LINE#         367
  C:0286H         LINE#         368
  C:0289H         LINE#         369
  C:0289H         LINE#         370
  C:0291H         LINE#         371
  C:0294H         LINE#         372
  C:0294H         LINE#         373
  C:0297H         LINE#         374
  C:029AH         LINE#         375
  C:029AH         LINE#         376
  C:02A0H         LINE#         377
  C:02A3H         LINE#         378
  C:02A3H         LINE#         379
  C:02A6H         LINE#         381
  C:02A6H         LINE#         382
  C:02ACH         LINE#         383
  C:02ACH         LINE#         384
  C:02AFH         LINE#         385
  C:02AFH         LINE#         386
  C:02B8H         LINE#         387
  C:02B8H         LINE#         388
  C:02C9H         LINE#         389
  C:02C9H         LINE#         390
  C:02D3H         LINE#         391
  C:02D3H         LINE#         393
  C:02D3H         LINE#         395
  C:02D3H         LINE#         396
  C:02D9H         LINE#         397
  C:02D9H         LINE#         398
  C:02DCH         LINE#         400
  C:02DCH         LINE#         401
  C:02E2H         LINE#         402
  C:02E2H         LINE#         403
  C:02E5H         LINE#         405
  C:02EAH         LINE#         406
  C:02EAH         LINE#         407
  C:02F9H         LINE#         408
  C:02F9H         LINE#         409
  C:0315H         LINE#         410
  C:0315H         LINE#         411
  C:0315H         LINE#         412
  C:031DH         LINE#         413
  C:031FH         LINE#         415
  C:031FH         LINE#         416
  C:0327H         LINE#         417
  C:0329H         LINE#         419
  C:0329H         LINE#         420
  C:0331H         LINE#         421
  C:0333H         LINE#         423
  C:0333H         LINE#         424
  C:0339H         LINE#         425
  C:033BH         LINE#         426
BL51 BANKED LINKER/LOCATER V6.22                                                      03/13/2017  11:42:24  PAGE 10


  C:033BH         LINE#         427
  C:033DH         LINE#         429
  C:033DH         LINE#         430
  C:0343H         LINE#         431
  C:0343H         LINE#         432
  C:0345H         LINE#         434
  C:0345H         LINE#         435
  C:034BH         LINE#         436
  C:034BH         LINE#         437
  C:034DH         LINE#         438
  C:034DH         LINE#         439
  C:0352H         LINE#         440
  C:0354H         LINE#         441
  C:035DH         LINE#         442
  C:035DH         LINE#         443
  C:0363H         LINE#         444
  C:0365H         LINE#         446
  C:0365H         LINE#         447
  C:036DH         LINE#         448
  C:036DH         LINE#         449
  C:036FH         LINE#         450
  C:036FH         LINE#         451
  C:0375H         LINE#         452
  C:0377H         LINE#         453
  C:0377H         LINE#         454
  C:0377H         LINE#         455
  C:0379H         LINE#         457
  C:0379H         LINE#         458
  C:037FH         LINE#         459
  C:037FH         LINE#         460
  C:0387H         LINE#         461
  C:0387H         LINE#         462
  C:038DH         LINE#         465
  C:0390H         LINE#         466
  C:0396H         LINE#         467
  C:0396H         LINE#         468
  C:0398H         LINE#         469
  C:039BH         LINE#         470
  C:039EH         LINE#         472
  C:039EH         LINE#         473
  C:03A1H         LINE#         474
  C:03A4H         LINE#         475
  C:03A4H         LINE#         476
  C:03A7H         LINE#         477
  C:03A7H         LINE#         478
  C:03B2H         LINE#         479
  C:03B2H         LINE#         480
  C:03B2H         LINE#         481
  C:03C9H         LINE#         482
  C:03E1H         LINE#         483
  C:03F2H         LINE#         484
  C:03FDH         LINE#         485
  C:0403H         LINE#         486
  C:0406H         LINE#         487
  C:0408H         LINE#         488
  C:0408H         LINE#         489
  C:0414H         LINE#         490
BL51 BANKED LINKER/LOCATER V6.22                                                      03/13/2017  11:42:24  PAGE 11


  C:0417H         LINE#         491
  C:0417H         LINE#         492
  C:0417H         LINE#         495
  C:0417H         LINE#         496
  C:0417H         LINE#         497
  C:041EH         LINE#         498
  C:041EH         LINE#         499
  C:0420H         LINE#         500
  C:0423H         LINE#         501
  C:0423H         LINE#         502
  C:0425H         LINE#         503
  C:0425H         LINE#         504
  C:042BH         LINE#         505
  C:0432H         LINE#         506
  C:0432H         LINE#         507
  C:0438H         LINE#         508
  C:0438H         LINE#         510
  C:0441H         LINE#         512
  C:0443H         LINE#         513
  C:0449H         LINE#         514
  C:0449H         LINE#         516
  C:0452H         LINE#         518
  C:0452H         LINE#         519
  C:0452H         LINE#         520
  C:0455H         LINE#         521
  C:0458H         LINE#         522
  C:0458H         LINE#         523
  C:0458H         LINE#         524
  C:0458H         LINE#         525
  C:0458H         LINE#         526
  C:045AH         LINE#         527
  C:045AH         LINE#         528
  C:045DH         LINE#         529
  C:045DH         LINE#         530
  C:0460H         LINE#         531
  C:0463H         LINE#         532
  C:0466H         LINE#         533
  C:0469H         LINE#         534
  C:046BH         LINE#         535
  C:046DH         LINE#         536
  C:046FH         LINE#         537
  C:046FH         LINE#         538
  C:0472H         LINE#         539
  C:0472H         LINE#         540
  C:0474H         LINE#         541
  C:0479H         LINE#         542
  C:0479H         LINE#         544
  C:0482H         LINE#         546
  C:0487H         LINE#         547
  C:0487H         LINE#         550
  C:0487H         LINE#         551
  C:048AH         LINE#         552
  C:048DH         LINE#         553
  C:0490H         LINE#         554
  C:0493H         LINE#         555
  C:0496H         LINE#         556
  C:0499H         LINE#         557
BL51 BANKED LINKER/LOCATER V6.22                                                      03/13/2017  11:42:24  PAGE 12


  C:049CH         LINE#         558
  C:049CH         LINE#         559
  C:049EH         LINE#         560
  C:049EH         LINE#         561
  C:04A1H         LINE#         562
  C:04A1H         LINE#         563
  -------         ENDPROC       DEVICEINTERRUPT
  -------         PROC          _SENDKEY
  D:0001H         SYMBOL        p
  -------         DO            
  D:0006H         SYMBOL        c
  -------         ENDDO         
  C:0AD2H         LINE#         573
  C:0AD2H         LINE#         574
  C:0AD2H         LINE#         576
  C:0AD6H         LINE#         578
  C:0AE5H         LINE#         579
  C:0AE9H         LINE#         580
  C:0AE9H         LINE#         582
  C:0AF9H         LINE#         583
  C:0B00H         LINE#         584
  C:0B03H         LINE#         586
  C:0B13H         LINE#         587
  C:0B1DH         LINE#         589
  C:0B1DH         LINE#         590
  C:0B49H         LINE#         591
  C:0B49H         LINE#         592
  C:0B4FH         LINE#         593
  C:0B55H         LINE#         594
  C:0B57H         LINE#         595
  C:0B57H         LINE#         596
  C:0B5DH         LINE#         597
  C:0B5FH         LINE#         598
  C:0B5FH         LINE#         599
  C:0B65H         LINE#         600
  C:0B67H         LINE#         601
  C:0B67H         LINE#         602
  C:0B6DH         LINE#         603
  C:0B6FH         LINE#         604
  C:0B6FH         LINE#         605
  C:0B75H         LINE#         606
  C:0B7BH         LINE#         607
  C:0B7DH         LINE#         608
  C:0B7DH         LINE#         609
  C:0B82H         LINE#         610
  C:0B88H         LINE#         611
  C:0B8AH         LINE#         612
  C:0B8AH         LINE#         613
  C:0B90H         LINE#         614
  C:0B96H         LINE#         615
  C:0B98H         LINE#         616
  C:0B98H         LINE#         617
  C:0B9EH         LINE#         618
  C:0BA4H         LINE#         619
  C:0BA6H         LINE#         620
  C:0BA6H         LINE#         621
  C:0BACH         LINE#         622
BL51 BANKED LINKER/LOCATER V6.22                                                      03/13/2017  11:42:24  PAGE 13


  C:0BAEH         LINE#         623
  C:0BAEH         LINE#         624
  C:0BB4H         LINE#         625
  C:0BB6H         LINE#         626
  C:0BB6H         LINE#         627
  C:0BBCH         LINE#         628
  C:0BC1H         LINE#         629
  C:0BC3H         LINE#         630
  C:0BC3H         LINE#         631
  C:0BC9H         LINE#         632
  C:0BCFH         LINE#         633
  C:0BCFH         LINE#         634
  C:0BCFH         LINE#         635
  C:0BCFH         LINE#         636
  C:0BCFH         LINE#         637
  C:0BCFH         LINE#         639
  C:0BD6H         LINE#         640
  C:0BDCH         LINE#         641
  C:0BDFH         LINE#         642
  C:0BE5H         LINE#         643
  C:0BECH         LINE#         644
  C:0BF1H         LINE#         645
  C:0BF5H         LINE#         646
  C:0BFBH         LINE#         647
  C:0BFEH         LINE#         648
  C:0C04H         LINE#         649
  -------         ENDPROC       _SENDKEY
  -------         PROC          UPLOADDATA
  -------         DO            
  X:0156H         SYMBOL        i
  -------         ENDDO         
  C:0FF7H         LINE#         658
  C:0FF7H         LINE#         659
  C:0FF7H         LINE#         661
  C:0FFDH         LINE#         662
  C:101CH         LINE#         663
  -------         ENDPROC       UPLOADDATA
  -------         PROC          HIDVALUEHANDLE
  -------         DO            
  X:00D0H         SYMBOL        rotateFlag
  X:0155H         SYMBOL        readFlag
  -------         ENDDO         
  C:0E4AH         LINE#         671
  C:0E4AH         LINE#         672
  C:0E4AH         LINE#         674
  C:0E50H         LINE#         675
  C:0E56H         LINE#         676
  C:0E56H         LINE#         677
  C:0E5CH         LINE#         678
  C:0E5FH         LINE#         680
  C:0E62H         LINE#         681
  C:0E63H         LINE#         683
  C:0E63H         LINE#         684
  C:0E6BH         LINE#         685
  C:0E6BH         LINE#         686
  C:0E79H         LINE#         687
  C:0E83H         LINE#         688
BL51 BANKED LINKER/LOCATER V6.22                                                      03/13/2017  11:42:24  PAGE 14


  C:0E93H         LINE#         689
  C:0E93H         LINE#         690
  C:0E97H         LINE#         691
  C:0EA0H         LINE#         692
  C:0EA7H         LINE#         693
  C:0EADH         LINE#         694
  C:0EADH         LINE#         695
  C:0EAEH         LINE#         697
  C:0EAEH         LINE#         698
  C:0EB6H         LINE#         699
  C:0EBEH         LINE#         700
  C:0EBEH         LINE#         701
  C:0EBEH         LINE#         703
  -------         ENDPROC       HIDVALUEHANDLE
  -------         ENDMOD        COMPOUND

  -------         MODULE        DEBUG
  C:0000H         SYMBOL        _ICE_DUMMY_
  D:0080H         PUBLIC        P0
  D:0090H         PUBLIC        P1
  D:00A0H         PUBLIC        P2
  D:00B0H         PUBLIC        P3
  C:0D20H         PUBLIC        mInitSTDIO
  D:00E8H         PUBLIC        IE_EX
  D:00A8H         PUBLIC        IE
  D:00B8H         PUBLIC        IP
  B:0098H.0       PUBLIC        RI
  B:0098H.1       PUBLIC        TI
  C:002AH         PUBLIC        _mDelaymS
  D:00D8H         PUBLIC        USB_INT_FG
  C:10ACH         PUBLIC        _mDelayuS
  B:00C8H.5       PUBLIC        RCLK
  B:00C8H.4       PUBLIC        TCLK
  D:0099H         PUBLIC        SBUF
  D:0087H         PUBLIC        PCON
  D:0098H         PUBLIC        SCON
  D:0089H         PUBLIC        TMOD
  D:0088H         PUBLIC        TCON
  C:10BAH         PUBLIC        CfgFsys
  D:00F8H         PUBLIC        SPI0_STAT
  D:008DH         PUBLIC        TH1
  B:0098H.7       PUBLIC        SM0
  B:0098H.6       PUBLIC        SM1
  B:0098H.5       PUBLIC        SM2
  B:0088H.6       PUBLIC        TR1
  D:00C0H         PUBLIC        P4_OUT
  D:00A1H         PUBLIC        SAFE_MOD
  C:10C4H         PUBLIC        CH559UART0RcvByte
  B:0098H.4       PUBLIC        REN
  D:00C9H         PUBLIC        T2MOD
  D:00C8H         PUBLIC        T2CON
  D:00D0H         PUBLIC        PSW
  -------         PROC          CFGFSYS
  C:10BAH         LINE#         27
  C:10BAH         LINE#         28
  C:10BAH         LINE#         29
  C:10BDH         LINE#         30
BL51 BANKED LINKER/LOCATER V6.22                                                      03/13/2017  11:42:24  PAGE 15


  C:10C0H         LINE#         39
  C:10C3H         LINE#         41
  -------         ENDPROC       CFGFSYS
  -------         PROC          _MDELAYUS
  D:0006H         SYMBOL        n
  C:10ACH         LINE#         50
  C:10ACH         LINE#         51
  C:10ACH         LINE#         52
  C:10B0H         LINE#         53
  C:10B2H         LINE#         122
  C:10B7H         LINE#         123
  C:10B9H         LINE#         124
  -------         ENDPROC       _MDELAYUS
  -------         PROC          _MDELAYMS
  D:0004H         SYMBOL        n
  C:002AH         LINE#         133
  C:002EH         LINE#         134
  C:002EH         LINE#         135
  C:0032H         LINE#         136
  C:0032H         LINE#         137
  C:0039H         LINE#         138
  C:003EH         LINE#         139
  C:0040H         LINE#         140
  -------         ENDPROC       _MDELAYMS
  -------         PROC          MINITSTDIO
  -------         DO            
  X:0155H         SYMBOL        x
  X:0159H         SYMBOL        x2
  -------         ENDDO         
  C:0D20H         LINE#         164
  C:0D20H         LINE#         165
  C:0D20H         LINE#         169
  C:0D22H         LINE#         170
  C:0D24H         LINE#         171
  C:0D26H         LINE#         173
  C:0D28H         LINE#         174
  C:0D2AH         LINE#         175
  C:0D2DH         LINE#         176
  C:0D37H         LINE#         177
  C:0D53H         LINE#         178
  C:0D70H         LINE#         179
  C:0D9EH         LINE#         181
  C:0DA6H         LINE#         182
  C:0DA9H         LINE#         183
  C:0DB7H         LINE#         184
  C:0DB9H         LINE#         185
  C:0DBBH         LINE#         186
  C:0DBDH         LINE#         187
  -------         ENDPROC       MINITSTDIO
  -------         PROC          CH559UART0RCVBYTE
  C:10C4H         LINE#         196
  C:10C4H         LINE#         197
  C:10C4H         LINE#         198
  C:10C7H         LINE#         199
  C:10C9H         LINE#         200
  C:10CBH         LINE#         201
  -------         ENDPROC       CH559UART0RCVBYTE
BL51 BANKED LINKER/LOCATER V6.22                                                      03/13/2017  11:42:24  PAGE 16


  -------         ENDMOD        DEBUG

  -------         MODULE        MAIN
  C:0000H         SYMBOL        _ICE_DUMMY_
  D:0080H         PUBLIC        P0
  D:0090H         PUBLIC        P1
  D:00A0H         PUBLIC        P2
  D:00B0H         PUBLIC        P3
  D:00E8H         PUBLIC        IE_EX
  D:00A8H         PUBLIC        IE
  D:00D3H         PUBLIC        UEP1_T_LEN
  D:00D5H         PUBLIC        UEP2_T_LEN
  D:00B8H         PUBLIC        IP
  D:00D8H         PUBLIC        USB_INT_FG
  C:0FB1H         PUBLIC        main
  D:0098H         PUBLIC        SCON
  D:0088H         PUBLIC        TCON
  D:00F8H         PUBLIC        SPI0_STAT
  D:00C0H         PUBLIC        P4_OUT
  D:00C8H         PUBLIC        T2CON
  D:00D0H         PUBLIC        PSW
  -------         PROC          MAIN
  C:0FB1H         LINE#         17
  C:0FB1H         LINE#         18
  C:0FB1H         LINE#         19
  C:0FB8H         LINE#         20
  C:0FBBH         LINE#         23
  C:0FC4H         LINE#         24
  C:0FCDH         LINE#         26
  C:0FD0H         LINE#         27
  C:0FD3H         LINE#         28
  C:0FD6H         LINE#         30
  C:0FD9H         LINE#         31
  C:0FDBH         LINE#         32
  C:0FDFH         LINE#         33
  C:0FE3H         LINE#         34
  C:0FE3H         LINE#         35
  C:0FE3H         LINE#         36
  C:0FEAH         LINE#         37
  C:0FEAH         LINE#         38
  C:0FEDH         LINE#         39
  C:0FEDH         LINE#         41
  C:0FF4H         LINE#         42
  -------         ENDPROC       MAIN
  -------         ENDMOD        MAIN

  -------         MODULE        ?C?COPY
  C:08E1H         PUBLIC        ?C?COPY
  -------         ENDMOD        ?C?COPY

  -------         MODULE        ?C?CLDPTR
  C:0907H         PUBLIC        ?C?CLDPTR
  -------         ENDMOD        ?C?CLDPTR

  -------         MODULE        ?C?IILDX
  C:0920H         PUBLIC        ?C?IILDX
  -------         ENDMOD        ?C?IILDX
BL51 BANKED LINKER/LOCATER V6.22                                                      03/13/2017  11:42:24  PAGE 17



  -------         MODULE        ?C?ULDIV
  C:0972H         PUBLIC        ?C?ULDIV
  -------         ENDMOD        ?C?ULDIV

  -------         MODULE        ?C?LSTXDATA
  C:0A04H         PUBLIC        ?C?LSTXDATA
  -------         ENDMOD        ?C?LSTXDATA

  -------         MODULE        ?C?LSTKXDATA
  C:0A10H         PUBLIC        ?C?LSTKXDATA
  -------         ENDMOD        ?C?LSTKXDATA

  -------         MODULE        ?C?CCASE
  C:0A41H         PUBLIC        ?C?CCASE
  -------         ENDMOD        ?C?CCASE

  -------         MODULE        PRINTF
  X:0155H         PUBLIC        ?_PRINTF517?BYTE
  X:0155H         PUBLIC        ?_PRINTF?BYTE
  X:0155H         PUBLIC        ?_SPRINTF517?BYTE
  X:0155H         PUBLIC        ?_SPRINTF?BYTE
  C:0517H         PUBLIC        _PRINTF
  C:0517H         PUBLIC        _PRINTF517
  C:0511H         PUBLIC        _SPRINTF
  C:0511H         PUBLIC        _SPRINTF517
  -------         ENDMOD        PRINTF

  -------         MODULE        RAND
  X:004AH         PUBLIC        ?SRAND?BYTE
  C:0F19H         PUBLIC        RAND
  C:0F57H         PUBLIC        _SRAND
  -------         ENDMOD        RAND

  -------         MODULE        ?C?CLDOPTR
  C:0A67H         PUBLIC        ?C?CLDOPTR
  -------         ENDMOD        ?C?CLDOPTR

  -------         MODULE        ?C?CSTPTR
  C:0A94H         PUBLIC        ?C?CSTPTR
  -------         ENDMOD        ?C?CSTPTR

  -------         MODULE        ?C?LLDXDATA
  C:0AA6H         PUBLIC        ?C?LLDXDATA
  -------         ENDMOD        ?C?LLDXDATA

  -------         MODULE        ?C?PLDIXDATA
  C:0AB2H         PUBLIC        ?C?PLDIXDATA
  -------         ENDMOD        ?C?PLDIXDATA

  -------         MODULE        ?C?PSTXDATA
  C:0AC9H         PUBLIC        ?C?PSTXDATA
  -------         ENDMOD        ?C?PSTXDATA

  -------         MODULE        PUTCHAR
  C:0003H         PUBLIC        _PUTCHAR
  -------         ENDMOD        PUTCHAR
BL51 BANKED LINKER/LOCATER V6.22                                                      03/13/2017  11:42:24  PAGE 18



*** WARNING L15: MULTIPLE CALL TO SEGMENT
    SEGMENT: ?PR?PRINTF?PRINTF
    CALLER1: ?PR?DEVICEINTERRUPT?COMPOUND
    CALLER2: ?C_C51STARTUP

Program Size: data=29.2 xdata=415 code=4298
LINK/LOCATE RUN COMPLETE.  1 WARNING(S),  0 ERROR(S)
